; ModuleID = '36/1297.c'
source_filename = "36/1297.c"
target datalayout = "e-m:e-p270:32:32-p271:32:32-p272:64:64-i64:64-f80:128-n8:16:32:64-S128"
target triple = "x86_64-pc-linux-gnu"

@.str = private unnamed_addr constant [6 x i8] c"%s %s\00", align 1
@.str.1 = private unnamed_addr constant [4 x i8] c"YES\00", align 1
@.str.2 = private unnamed_addr constant [3 x i8] c"NO\00", align 1

; Function Attrs: noinline nounwind uwtable
define dso_local i32 @main(i32 %0, i8** %1) #0 {
  %3 = alloca i32, align 4
  %4 = alloca i32, align 4
  %5 = alloca i8**, align 8
  %6 = alloca [100 x i8], align 16
  %7 = alloca [100 x i8], align 16
  %8 = alloca i32, align 4
  %9 = alloca i32, align 4
  %10 = alloca i32, align 4
  %11 = alloca i32, align 4
  %12 = alloca i8, align 1
  store i32 0, i32* %3, align 4
  store i32 %0, i32* %4, align 4
  store i8** %1, i8*** %5, align 8
  %13 = getelementptr inbounds [100 x i8], [100 x i8]* %6, i64 0, i64 0
  %14 = getelementptr inbounds [100 x i8], [100 x i8]* %7, i64 0, i64 0
  %15 = call i32 (i8*, ...) @__isoc99_scanf(i8* getelementptr inbounds ([6 x i8], [6 x i8]* @.str, i64 0, i64 0), i8* %13, i8* %14)
  %16 = getelementptr inbounds [100 x i8], [100 x i8]* %6, i64 0, i64 0
  %17 = call i64 @strlen(i8* %16) #3
  %18 = trunc i64 %17 to i32
  store i32 %18, i32* %10, align 4
  %19 = getelementptr inbounds [100 x i8], [100 x i8]* %7, i64 0, i64 0
  %20 = call i64 @strlen(i8* %19) #3
  %21 = trunc i64 %20 to i32
  store i32 %21, i32* %11, align 4
  store i32 0, i32* %8, align 4
  br label %22

22:                                               ; preds = %70, %2
  %23 = load i32, i32* %8, align 4
  %24 = load i32, i32* %10, align 4
  %25 = icmp slt i32 %23, %24
  br i1 %25, label %26, label %73

26:                                               ; preds = %22
  %27 = load i32, i32* %10, align 4
  %28 = sub nsw i32 %27, 1
  store i32 %28, i32* %9, align 4
  br label %29

29:                                               ; preds = %66, %26
  %30 = load i32, i32* %9, align 4
  %31 = load i32, i32* %8, align 4
  %32 = add nsw i32 %31, 1
  %33 = icmp sge i32 %30, %32
  br i1 %33, label %34, label %69

34:                                               ; preds = %29
  %35 = load i32, i32* %9, align 4
  %36 = sext i32 %35 to i64
  %37 = getelementptr inbounds [100 x i8], [100 x i8]* %6, i64 0, i64 %36
  %38 = load i8, i8* %37, align 1
  %39 = sext i8 %38 to i32
  %40 = load i32, i32* %9, align 4
  %41 = sub nsw i32 %40, 1
  %42 = sext i32 %41 to i64
  %43 = getelementptr inbounds [100 x i8], [100 x i8]* %6, i64 0, i64 %42
  %44 = load i8, i8* %43, align 1
  %45 = sext i8 %44 to i32
  %46 = icmp slt i32 %39, %45
  br i1 %46, label %47, label %65

47:                                               ; preds = %34
  %48 = load i32, i32* %9, align 4
  %49 = sext i32 %48 to i64
  %50 = getelementptr inbounds [100 x i8], [100 x i8]* %6, i64 0, i64 %49
  %51 = load i8, i8* %50, align 1
  store i8 %51, i8* %12, align 1
  %52 = load i32, i32* %9, align 4
  %53 = sub nsw i32 %52, 1
  %54 = sext i32 %53 to i64
  %55 = getelementptr inbounds [100 x i8], [100 x i8]* %6, i64 0, i64 %54
  %56 = load i8, i8* %55, align 1
  %57 = load i32, i32* %9, align 4
  %58 = sext i32 %57 to i64
  %59 = getelementptr inbounds [100 x i8], [100 x i8]* %6, i64 0, i64 %58
  store i8 %56, i8* %59, align 1
  %60 = load i8, i8* %12, align 1
  %61 = load i32, i32* %9, align 4
  %62 = sub nsw i32 %61, 1
  %63 = sext i32 %62 to i64
  %64 = getelementptr inbounds [100 x i8], [100 x i8]* %6, i64 0, i64 %63
  store i8 %60, i8* %64, align 1
  br label %65

65:                                               ; preds = %47, %34
  br label %66

66:                                               ; preds = %65
  %67 = load i32, i32* %9, align 4
  %68 = add nsw i32 %67, -1
  store i32 %68, i32* %9, align 4
  br label %29

69:                                               ; preds = %29
  br label %70

70:                                               ; preds = %69
  %71 = load i32, i32* %8, align 4
  %72 = add nsw i32 %71, 1
  store i32 %72, i32* %8, align 4
  br label %22

73:                                               ; preds = %22
  store i32 0, i32* %8, align 4
  br label %74

74:                                               ; preds = %122, %73
  %75 = load i32, i32* %8, align 4
  %76 = load i32, i32* %11, align 4
  %77 = icmp slt i32 %75, %76
  br i1 %77, label %78, label %125

78:                                               ; preds = %74
  %79 = load i32, i32* %11, align 4
  %80 = sub nsw i32 %79, 1
  store i32 %80, i32* %9, align 4
  br label %81

81:                                               ; preds = %118, %78
  %82 = load i32, i32* %9, align 4
  %83 = load i32, i32* %8, align 4
  %84 = add nsw i32 %83, 1
  %85 = icmp sge i32 %82, %84
  br i1 %85, label %86, label %121

86:                                               ; preds = %81
  %87 = load i32, i32* %9, align 4
  %88 = sext i32 %87 to i64
  %89 = getelementptr inbounds [100 x i8], [100 x i8]* %7, i64 0, i64 %88
  %90 = load i8, i8* %89, align 1
  %91 = sext i8 %90 to i32
  %92 = load i32, i32* %9, align 4
  %93 = sub nsw i32 %92, 1
  %94 = sext i32 %93 to i64
  %95 = getelementptr inbounds [100 x i8], [100 x i8]* %7, i64 0, i64 %94
  %96 = load i8, i8* %95, align 1
  %97 = sext i8 %96 to i32
  %98 = icmp slt i32 %91, %97
  br i1 %98, label %99, label %117

99:                                               ; preds = %86
  %100 = load i32, i32* %9, align 4
  %101 = sext i32 %100 to i64
  %102 = getelementptr inbounds [100 x i8], [100 x i8]* %7, i64 0, i64 %101
  %103 = load i8, i8* %102, align 1
  store i8 %103, i8* %12, align 1
  %104 = load i32, i32* %9, align 4
  %105 = sub nsw i32 %104, 1
  %106 = sext i32 %105 to i64
  %107 = getelementptr inbounds [100 x i8], [100 x i8]* %7, i64 0, i64 %106
  %108 = load i8, i8* %107, align 1
  %109 = load i32, i32* %9, align 4
  %110 = sext i32 %109 to i64
  %111 = getelementptr inbounds [100 x i8], [100 x i8]* %7, i64 0, i64 %110
  store i8 %108, i8* %111, align 1
  %112 = load i8, i8* %12, align 1
  %113 = load i32, i32* %9, align 4
  %114 = sub nsw i32 %113, 1
  %115 = sext i32 %114 to i64
  %116 = getelementptr inbounds [100 x i8], [100 x i8]* %7, i64 0, i64 %115
  store i8 %112, i8* %116, align 1
  br label %117

117:                                              ; preds = %99, %86
  br label %118

118:                                              ; preds = %117
  %119 = load i32, i32* %9, align 4
  %120 = add nsw i32 %119, -1
  store i32 %120, i32* %9, align 4
  br label %81

121:                                              ; preds = %81
  br label %122

122:                                              ; preds = %121
  %123 = load i32, i32* %8, align 4
  %124 = add nsw i32 %123, 1
  store i32 %124, i32* %8, align 4
  br label %74

125:                                              ; preds = %74
  %126 = getelementptr inbounds [100 x i8], [100 x i8]* %6, i64 0, i64 0
  %127 = getelementptr inbounds [100 x i8], [100 x i8]* %7, i64 0, i64 0
  %128 = call i32 @strcmp(i8* %126, i8* %127) #3
  %129 = icmp eq i32 %128, 0
  br i1 %129, label %130, label %132

130:                                              ; preds = %125
  %131 = call i32 (i8*, ...) @printf(i8* getelementptr inbounds ([4 x i8], [4 x i8]* @.str.1, i64 0, i64 0))
  br label %134

132:                                              ; preds = %125
  %133 = call i32 (i8*, ...) @printf(i8* getelementptr inbounds ([3 x i8], [3 x i8]* @.str.2, i64 0, i64 0))
  br label %134

134:                                              ; preds = %132, %130
  ret i32 0
}

declare dso_local i32 @__isoc99_scanf(i8*, ...) #1

; Function Attrs: nounwind readonly
declare dso_local i64 @strlen(i8*) #2

; Function Attrs: nounwind readonly
declare dso_local i32 @strcmp(i8*, i8*) #2

declare dso_local i32 @printf(i8*, ...) #1


!llvm.module.flags = !{!0}
!llvm.ident = !{!1}

!0 = !{i32 1, !"wchar_size", i32 4}
!1 = !{!"clang version 10.0.0-4ubuntu1 "}
